target datalayout = "e-m:e-p270:32:32-p271:32:32-p272:64:64-i64:64-i128:128-f80:128-n8:16:32:64-S128"
target triple = "x86_64-pc-linux-gnu"

%class.anon = type { i8 }
%"class.std::__cxx11::basic_string" = type { %"struct.std::__cxx11::basic_string<char>::_Alloc_hider", i64, %union.anon }
%"struct.std::__cxx11::basic_string<char>::_Alloc_hider" = type { ptr }
%union.anon = type { i64, [8 x i8] }

@glad_glGetError = external global ptr, align 8
@.str = private unnamed_addr constant [11 x i8] c"GL_ERROR: \00", align 1
@stderr = external global ptr, align 8
@.str.1 = private unnamed_addr constant [6 x i8] c"%s%s\0A\00", align 1
@.str.3 = private unnamed_addr constant [19 x i8] c"unknown error code\00", align 1
@.str.4 = private unnamed_addr constant [9 x i8] c"no error\00", align 1
@.str.5 = private unnamed_addr constant [18 x i8] c"invalid enumerant\00", align 1
@.str.6 = private unnamed_addr constant [14 x i8] c"invalid value\00", align 1
@.str.7 = private unnamed_addr constant [18 x i8] c"invalid operation\00", align 1
@.str.8 = private unnamed_addr constant [14 x i8] c"out of memory\00", align 1

; Function Attrs: noinline noreturn nounwind uwtable
define linkonce_odr hidden void @__clang_call_terminate(ptr noundef %0) #6 comdat {
  %2 = call ptr @__cxa_begin_catch(ptr %0) #12
  call void @_ZSt9terminatev() #13
  unreachable
}

; Function Attrs: mustprogress nounwind uwtable
define available_externally noundef ptr @_ZNKSt7__cxx1112basic_stringIcSt11char_traitsIcESaIcEE7_M_dataEv(ptr noundef nonnull align 8 dereferenceable(32) %0) #4 align 2 {
  %2 = alloca ptr, align 8
  store ptr %0, ptr %2, align 8, !tbaa !4
  %3 = load ptr, ptr %2, align 8
  %4 = getelementptr inbounds nuw %"class.std::__cxx11::basic_string", ptr %3, i32 0, i32 0
  %5 = getelementptr inbounds nuw %"struct.std::__cxx11::basic_string<char>::_Alloc_hider", ptr %4, i32 0, i32 0
  %6 = load ptr, ptr %5, align 8, !tbaa !20
  ret ptr %6
}

; Function Attrs: inlinehint mustprogress nounwind uwtable
define internal noundef ptr @"_ZZN3igl6opengl15report_gl_errorENSt7__cxx1112basic_stringIcSt11char_traitsIcESaIcEEEENK3$_0clEj"(ptr noundef nonnull align 1 dereferenceable(1) %0, i32 noundef %1) #2 align 2 {
  %3 = alloca ptr, align 8
  %4 = alloca ptr, align 8
  %5 = alloca i32, align 4
  store ptr %0, ptr %4, align 8, !tbaa !9
  store i32 %1, ptr %5, align 4, !tbaa !10
  %6 = load i32, ptr %5, align 4, !tbaa !10
  switch i32 %6, label %7 [
    i32 0, label %8
    i32 1280, label %9
    i32 1281, label %10
    i32 1282, label %11
    i32 1285, label %12
  ]

7:                                                ; preds = %2
  store ptr @.str.3, ptr %3, align 8
  br label %13

8:                                                ; preds = %2
  store ptr @.str.4, ptr %3, align 8
  br label %13

9:                                                ; preds = %2
  store ptr @.str.5, ptr %3, align 8
  br label %13

10:                                               ; preds = %2
  store ptr @.str.6, ptr %3, align 8
  br label %13

11:                                               ; preds = %2
  store ptr @.str.7, ptr %3, align 8
  br label %13

12:                                               ; preds = %2
  store ptr @.str.8, ptr %3, align 8
  br label %13

13:                                               ; preds = %12, %11, %10, %9, %8, %7
  %14 = load ptr, ptr %3, align 8
  ret ptr %14
}

; Function Attrs: mustprogress nounwind uwtable
define available_externally noundef ptr @_ZNKSt7__cxx1112basic_stringIcSt11char_traitsIcESaIcEE5c_strEv(ptr noundef nonnull align 8 dereferenceable(32) %0) #4 align 2 personality ptr @__gxx_personality_v0 {
  %2 = alloca ptr, align 8
  store ptr %0, ptr %2, align 8, !tbaa !4
  %3 = load ptr, ptr %2, align 8
  %4 = invoke noundef ptr @_ZNKSt7__cxx1112basic_stringIcSt11char_traitsIcESaIcEE7_M_dataEv(ptr noundef nonnull align 8 dereferenceable(32) %3)
          to label %5 unwind label %6

5:                                                ; preds = %1
  ret ptr %4

6:                                                ; preds = %1
  %7 = landingpad { ptr, i32 }
          catch ptr null
  %8 = extractvalue { ptr, i32 } %7, 0
  call void @__clang_call_terminate(ptr %8) #13
  unreachable
}

; Function Attrs: inlinehint mustprogress nounwind uwtable
define linkonce_odr dso_local noundef i32 @_ZN3igl7verboseEPKcz(ptr noundef %0, ...) #2 comdat {
  %2 = alloca ptr, align 8
  store ptr %0, ptr %2, align 8, !tbaa !14
  ret i32 0
}

; Function Attrs: mustprogress uwtable
define dso_local noundef i32 @_ZN3igl6opengl15report_gl_errorENSt7__cxx1112basic_stringIcSt11char_traitsIcESaIcEEE(ptr noundef %0) #0 {
  %2 = alloca ptr, align 8
  %3 = alloca %class.anon, align 1
  %4 = alloca i32, align 4
  store ptr %0, ptr %2, align 8, !tbaa !4
  call void @llvm.lifetime.start.p0(i64 1, ptr %3) #12
  call void @llvm.lifetime.start.p0(i64 4, ptr %4) #12
  %5 = load ptr, ptr @glad_glGetError, align 8, !tbaa !9
  %6 = call i32 %5()
  store i32 %6, ptr %4, align 4, !tbaa !10
  %7 = load i32, ptr %4, align 4, !tbaa !10
  %8 = icmp ne i32 0, %7
  br i1 %8, label %9, label %16

9:                                                ; preds = %1
  %10 = call noundef i32 (ptr, ...) @_ZN3igl7verboseEPKcz(ptr noundef @.str)
  %11 = load ptr, ptr @stderr, align 8, !tbaa !12
  %12 = call noundef ptr @_ZNKSt7__cxx1112basic_stringIcSt11char_traitsIcESaIcEE5c_strEv(ptr noundef nonnull align 8 dereferenceable(32) %0) #12
  %13 = load i32, ptr %4, align 4, !tbaa !10
  %14 = call noundef ptr @"_ZZN3igl6opengl15report_gl_errorENSt7__cxx1112basic_stringIcSt11char_traitsIcESaIcEEEENK3$_0clEj"(ptr noundef nonnull align 1 dereferenceable(1) %3, i32 noundef %13)
  %15 = call i32 (ptr, ptr, ...) @fprintf(ptr noundef %11, ptr noundef @.str.1, ptr noundef %12, ptr noundef %14) #12
  br label %16

16:                                               ; preds = %9, %1
  %17 = load i32, ptr %4, align 4, !tbaa !10
  call void @llvm.lifetime.end.p0(i64 4, ptr %4) #12
  call void @llvm.lifetime.end.p0(i64 1, ptr %3) #12
  ret i32 %17
}