; Function Attrs: mustprogress uwtable
define dso_local noundef i32 @_ZN3igl6opengl15report_gl_errorENSt7__cxx1112basic_stringIcSt11char_traitsIcESaIcEEE(ptr noundef readonly captures(none) %0) local_unnamed_addr #0 personality ptr @__gxx_personality_v0 {
  %2 = load ptr, ptr @glad_glGetError, align 8, !tbaa !4
  %3 = tail call i32 %2()
  %.not = icmp eq i32 %3, 0
  br i1 %.not, label %10, label %4

4:                                                ; preds = %1
  %5 = load ptr, ptr @stderr, align 8, !tbaa !8
  %6 = load ptr, ptr %0, align 8, !tbaa !10
  %switch.tableidx = add i32 %3, -1280
  %7 = icmp ult i32 %switch.tableidx, 6
  br i1 %7, label %switch.lookup, label %"_ZZN3igl6opengl15report_gl_errorENSt7__cxx1112basic_stringIcSt11char_traitsIcESaIcEEEENK3$_0clEj.exit"

switch.lookup:                                    ; preds = %4
  %8 = zext nneg i32 %switch.tableidx to i64
  %switch.gep = getelementptr inbounds nuw [6 x ptr], ptr @switch.table._ZN3igl6opengl15report_gl_errorEv, i64 0, i64 %8
  %switch.load = load ptr, ptr %switch.gep, align 8
  br label %"_ZZN3igl6opengl15report_gl_errorENSt7__cxx1112basic_stringIcSt11char_traitsIcESaIcEEEENK3$_0clEj.exit"

"_ZZN3igl6opengl15report_gl_errorENSt7__cxx1112basic_stringIcSt11char_traitsIcESaIcEEEENK3$_0clEj.exit": ; preds = %switch.lookup, %4
  %.0.i = phi ptr [ @.str.3, %4 ], [ %switch.load, %switch.lookup ]
  %9 = tail call i32 (ptr, ptr, ...) @fprintf(ptr noundef %5, ptr noundef nonnull @.str.1, ptr noundef %6, ptr noundef nonnull %.0.i) #4
  br label %10

10:                                               ; preds = %"_ZZN3igl6opengl15report_gl_errorENSt7__cxx1112basic_stringIcSt11char_traitsIcESaIcEEEENK3$_0clEj.exit", %1
  ret i32 %3
}